(dp1
(Vtest
p2
S'failed'
p3
tp4
ccopy_reg
_reconstructor
p5
(cpyspider.libs.counter
TotalCounter
p6
c__builtin__
object
p7
NtRp8
(dp9
S'cnt'
p10
I0
sbs(Vtest
p11
S'success'
p12
tp13
g5
(g6
g7
NtRp14
(dp15
g10
I14
sbs(g2
S'pending'
p16
tp17
g5
(g6
g7
NtRp18
(dp19
g10
I0
sbs.